target datalayout = "e-m:e-p270:32:32-p271:32:32-p272:64:64-i64:64-i128:128-f80:128-n8:16:32:64-S128"
target triple = "x86_64-pc-linux-gnu"

; Function Attrs: mustprogress nounwind uwtable
define internal void @_ZL17tMPI_L_DOUBLE_minPvPKvS1_i(ptr noundef %0, ptr noundef %1, ptr noundef %2, i32 noundef %3) #0 {
  %5 = alloca ptr, align 8
  %6 = alloca ptr, align 8
  %7 = alloca ptr, align 8
  %8 = alloca i32, align 4
  %9 = alloca ptr, align 8
  %10 = alloca ptr, align 8
  %11 = alloca ptr, align 8
  %12 = alloca i32, align 4
  store ptr %0, ptr %5, align 8, !tbaa !3
  store ptr %1, ptr %6, align 8, !tbaa !3
  store ptr %2, ptr %7, align 8, !tbaa !3
  store i32 %3, ptr %8, align 4, !tbaa !7
  call void @llvm.lifetime.start.p0(i64 8, ptr %9) #6
  %13 = load ptr, ptr %6, align 8, !tbaa !3
  store ptr %13, ptr %9, align 8, !tbaa !138
  call void @llvm.lifetime.start.p0(i64 8, ptr %10) #6
  %14 = load ptr, ptr %7, align 8, !tbaa !3
  store ptr %14, ptr %10, align 8, !tbaa !138
  call void @llvm.lifetime.start.p0(i64 8, ptr %11) #6
  %15 = load ptr, ptr %5, align 8, !tbaa !3
  store ptr %15, ptr %11, align 8, !tbaa !138
  call void @llvm.lifetime.start.p0(i64 4, ptr %12) #6
  store i32 0, ptr %12, align 4, !tbaa !7
  br label %16

16:                                               ; preds = %50, %4
  %17 = load i32, ptr %12, align 4, !tbaa !7
  %18 = load i32, ptr %8, align 4, !tbaa !7
  %19 = icmp slt i32 %17, %18
  br i1 %19, label %20, label %53

20:                                               ; preds = %16
  %21 = load ptr, ptr %9, align 8, !tbaa !138
  %22 = load i32, ptr %12, align 4, !tbaa !7
  %23 = sext i32 %22 to i64
  %24 = getelementptr inbounds x86_fp80, ptr %21, i64 %23
  %25 = load x86_fp80, ptr %24, align 16, !tbaa !140
  %26 = load ptr, ptr %10, align 8, !tbaa !138
  %27 = load i32, ptr %12, align 4, !tbaa !7
  %28 = sext i32 %27 to i64
  %29 = getelementptr inbounds x86_fp80, ptr %26, i64 %28
  %30 = load x86_fp80, ptr %29, align 16, !tbaa !140
  %31 = fcmp olt x86_fp80 %25, %30
  br i1 %31, label %32, label %38

32:                                               ; preds = %20
  %33 = load ptr, ptr %9, align 8, !tbaa !138
  %34 = load i32, ptr %12, align 4, !tbaa !7
  %35 = sext i32 %34 to i64
  %36 = getelementptr inbounds x86_fp80, ptr %33, i64 %35
  %37 = load x86_fp80, ptr %36, align 16, !tbaa !140
  br label %44

38:                                               ; preds = %20
  %39 = load ptr, ptr %10, align 8, !tbaa !138
  %40 = load i32, ptr %12, align 4, !tbaa !7
  %41 = sext i32 %40 to i64
  %42 = getelementptr inbounds x86_fp80, ptr %39, i64 %41
  %43 = load x86_fp80, ptr %42, align 16, !tbaa !140
  br label %44

44:                                               ; preds = %38, %32
  %45 = phi x86_fp80 [ %37, %32 ], [ %43, %38 ]
  %46 = load ptr, ptr %11, align 8, !tbaa !138
  %47 = load i32, ptr %12, align 4, !tbaa !7
  %48 = sext i32 %47 to i64
  %49 = getelementptr inbounds x86_fp80, ptr %46, i64 %48
  store x86_fp80 %45, ptr %49, align 16, !tbaa !140
  br label %50

50:                                               ; preds = %44
  %51 = load i32, ptr %12, align 4, !tbaa !7
  %52 = add nsw i32 %51, 1
  store i32 %52, ptr %12, align 4, !tbaa !7
  br label %16, !llvm.loop !143

53:                                               ; preds = %16
  call void @llvm.lifetime.end.p0(i64 4, ptr %12) #6
  call void @llvm.lifetime.end.p0(i64 8, ptr %11) #6
  call void @llvm.lifetime.end.p0(i64 8, ptr %10) #6
  call void @llvm.lifetime.end.p0(i64 8, ptr %9) #6
  ret void
}