; Function Attrs: mustprogress nofree norecurse nosync nounwind memory(argmem: readwrite) uwtable
define internal void @_ZL17tMPI_L_DOUBLE_minPvPKvS1_i(ptr noundef writeonly captures(none) %0, ptr noundef readonly captures(none) %1, ptr noundef readonly captures(none) %2, i32 noundef %3) #0 {
  %5 = icmp sgt i32 %3, 0
  br i1 %5, label %.lr.ph.preheader, label %._crit_edge

.lr.ph.preheader:                                 ; preds = %4
  %wide.trip.count = zext nneg i32 %3 to i64
  br label %.lr.ph

.lr.ph:                                           ; preds = %.lr.ph.preheader, %.lr.ph
  %indvars.iv = phi i64 [ 0, %.lr.ph.preheader ], [ %indvars.iv.next, %.lr.ph ]
  %6 = getelementptr inbounds nuw x86_fp80, ptr %1, i64 %indvars.iv
  %7 = load x86_fp80, ptr %6, align 16, !tbaa !122
  %8 = getelementptr inbounds nuw x86_fp80, ptr %2, i64 %indvars.iv
  %9 = load x86_fp80, ptr %8, align 16, !tbaa !122
  %10 = fcmp olt x86_fp80 %7, %9
  %. = select i1 %10, x86_fp80 %7, x86_fp80 %9
  %11 = getelementptr inbounds nuw x86_fp80, ptr %0, i64 %indvars.iv
  store x86_fp80 %., ptr %11, align 16, !tbaa !122
  %indvars.iv.next = add nuw nsw i64 %indvars.iv, 1
  %exitcond.not = icmp eq i64 %indvars.iv.next, %wide.trip.count
  br i1 %exitcond.not, label %._crit_edge, label %.lr.ph, !llvm.loop !125

._crit_edge:                                      ; preds = %.lr.ph, %4
  ret void
}